target datalayout = "e-m:e-p270:32:32-p271:32:32-p272:64:64-i64:64-i128:128-f80:128-n8:16:32:64-S128"
target triple = "x86_64-pc-linux-gnu"

; Function Attrs: nounwind uwtable
define dso_local i32 @jvp_utf8_encode_length(i32 noundef %0) #0 {
  %2 = alloca i32, align 4
  %3 = alloca i32, align 4
  store i32 %0, ptr %3, align 4, !tbaa !11
  %4 = load i32, ptr %3, align 4, !tbaa !11
  %5 = icmp sle i32 %4, 127
  br i1 %5, label %6, label %7

6:                                                ; preds = %1
  store i32 1, ptr %2, align 4
  br label %16

7:                                                ; preds = %1
  %8 = load i32, ptr %3, align 4, !tbaa !11
  %9 = icmp sle i32 %8, 2047
  br i1 %9, label %10, label %11

10:                                               ; preds = %7
  store i32 2, ptr %2, align 4
  br label %16

11:                                               ; preds = %7
  %12 = load i32, ptr %3, align 4, !tbaa !11
  %13 = icmp sle i32 %12, 65535
  br i1 %13, label %14, label %15

14:                                               ; preds = %11
  store i32 3, ptr %2, align 4
  br label %16

15:                                               ; preds = %11
  store i32 4, ptr %2, align 4
  br label %16

16:                                               ; preds = %15, %14, %10, %6
  %17 = load i32, ptr %2, align 4
  ret i32 %17
}