; Function Attrs: mustprogress nofree norecurse nosync nounwind willreturn memory(none) uwtable
define dso_local range(i32 1, 5) i32 @jvp_utf8_encode_length(i32 noundef %0) local_unnamed_addr #2 {
  %2 = icmp slt i32 %0, 128
  br i1 %2, label %7, label %3

3:                                                ; preds = %1
  %4 = icmp samesign ult i32 %0, 2048
  br i1 %4, label %7, label %5

5:                                                ; preds = %3
  %6 = icmp samesign ult i32 %0, 65536
  %. = select i1 %6, i32 3, i32 4
  br label %7

7:                                                ; preds = %5, %3, %1
  %.0 = phi i32 [ 1, %1 ], [ 2, %3 ], [ %., %5 ]
  ret i32 %.0
}